; Function Attrs: nounwind uwtable
define void @Wln_NtkCreateRefs(ptr noundef captures(none) initializes((252, 256)) %0) local_unnamed_addr #0 {
  %2 = getelementptr inbounds nuw i8, ptr %0, i64 248
  %3 = getelementptr inbounds nuw i8, ptr %0, i64 72
  %.val.i = load i32, ptr %3, align 8, !tbaa !18
  %4 = load i32, ptr %2, align 8, !tbaa !18
  %.not.i.i.i = icmp slt i32 %4, %.val.i
  br i1 %.not.i.i.i, label %5, label %Vec_IntGrow.exit.i.i

5:                                                ; preds = %1
  %6 = getelementptr inbounds nuw i8, ptr %0, i64 256
  %7 = load ptr, ptr %6, align 8, !tbaa !17
  %.not9.i.i.i = icmp eq ptr %7, null
  %8 = sext i32 %.val.i to i64
  %9 = shl nsw i64 %8, 2
  br i1 %.not9.i.i.i, label %12, label %10

10:                                               ; preds = %5
  %11 = tail call ptr @realloc(ptr noundef nonnull %7, i64 noundef %9) #20
  br label %14

12:                                               ; preds = %5
  %13 = tail call noalias ptr @malloc(i64 noundef %9) #19
  br label %14

14:                                               ; preds = %12, %10
  %15 = phi ptr [ %11, %10 ], [ %13, %12 ]
  store ptr %15, ptr %6, align 8, !tbaa !17
  store i32 %.val.i, ptr %2, align 8, !tbaa !18
  br label %Vec_IntGrow.exit.i.i

Vec_IntGrow.exit.i.i:                             ; preds = %14, %1
  %16 = icmp sgt i32 %.val.i, 0
  br i1 %16, label %.lr.ph.i.i, label %Wln_NtkCleanRefs.exit

.lr.ph.i.i:                                       ; preds = %Vec_IntGrow.exit.i.i
  %17 = getelementptr inbounds nuw i8, ptr %0, i64 256
  %18 = load ptr, ptr %17, align 8, !tbaa !17
  %19 = zext nneg i32 %.val.i to i64
  %20 = shl nuw nsw i64 %19, 2
  tail call void @llvm.memset.p0.i64(ptr align 4 %18, i8 0, i64 %20, i1 false), !tbaa !22
  br label %Wln_NtkCleanRefs.exit

Wln_NtkCleanRefs.exit:                            ; preds = %Vec_IntGrow.exit.i.i, %.lr.ph.i.i
  %21 = getelementptr inbounds nuw i8, ptr %0, i64 252
  store i32 %.val.i, ptr %21, align 4, !tbaa !21
  %22 = getelementptr i8, ptr %0, i64 76
  %.val19 = load i32, ptr %22, align 4, !tbaa !21
  %23 = icmp sgt i32 %.val19, 1
  br i1 %23, label %.preheader.lr.ph, label %._crit_edge

.preheader.lr.ph:                                 ; preds = %Wln_NtkCleanRefs.exit
  %24 = getelementptr i8, ptr %0, i64 88
  %.val15 = load ptr, ptr %24, align 8, !tbaa !25
  %25 = getelementptr i8, ptr %0, i64 256
  br label %.preheader

.preheader:                                       ; preds = %.preheader.lr.ph, %.critedge
  %.val25 = phi i32 [ %.val19, %.preheader.lr.ph ], [ %.val, %.critedge ]
  %indvars.iv22 = phi i64 [ 1, %.preheader.lr.ph ], [ %indvars.iv.next23, %.critedge ]
  %26 = getelementptr inbounds nuw %struct.Wln_Vec_t_, ptr %.val15, i64 %indvars.iv22, i32 1
  %27 = load i32, ptr %26, align 4, !tbaa !43
  %28 = icmp sgt i32 %27, 0
  br i1 %28, label %.lr.ph, label %.critedge

.lr.ph:                                           ; preds = %.preheader
  %29 = getelementptr inbounds nuw %struct.Wln_Vec_t_, ptr %.val15, i64 %indvars.iv22, i32 2
  br label %30

30:                                               ; preds = %.lr.ph, %44
  %31 = phi i32 [ %27, %.lr.ph ], [ %45, %44 ]
  %indvars.iv = phi i64 [ 0, %.lr.ph ], [ %indvars.iv.next, %44 ]
  %32 = icmp sgt i32 %31, 2
  br i1 %32, label %33, label %36

33:                                               ; preds = %30
  %34 = load ptr, ptr %29, align 8, !tbaa !24
  %35 = getelementptr inbounds nuw i32, ptr %34, i64 %indvars.iv
  br label %Wln_ObjFanin.exit

36:                                               ; preds = %30
  %37 = getelementptr inbounds nuw [2 x i32], ptr %29, i64 0, i64 %indvars.iv
  br label %Wln_ObjFanin.exit

Wln_ObjFanin.exit:                                ; preds = %33, %36
  %.in.i = phi ptr [ %35, %33 ], [ %37, %36 ]
  %38 = load i32, ptr %.in.i, align 4, !tbaa !24
  %.not = icmp eq i32 %38, 0
  br i1 %.not, label %44, label %39

39:                                               ; preds = %Wln_ObjFanin.exit
  %.val17 = load ptr, ptr %25, align 8, !tbaa !17
  %40 = sext i32 %38 to i64
  %41 = getelementptr inbounds i32, ptr %.val17, i64 %40
  %42 = load i32, ptr %41, align 4, !tbaa !22
  %43 = add nsw i32 %42, 1
  store i32 %43, ptr %41, align 4, !tbaa !22
  %.pre = load i32, ptr %26, align 4, !tbaa !43
  br label %44

44:                                               ; preds = %39, %Wln_ObjFanin.exit
  %45 = phi i32 [ %.pre, %39 ], [ %31, %Wln_ObjFanin.exit ]
  %indvars.iv.next = add nuw nsw i64 %indvars.iv, 1
  %46 = sext i32 %45 to i64
  %47 = icmp slt i64 %indvars.iv.next, %46
  br i1 %47, label %30, label %.critedge.loopexit, !llvm.loop !90

.critedge.loopexit:                               ; preds = %44
  %.val.pre = load i32, ptr %22, align 4, !tbaa !21
  br label %.critedge

.critedge:                                        ; preds = %.critedge.loopexit, %.preheader
  %.val = phi i32 [ %.val.pre, %.critedge.loopexit ], [ %.val25, %.preheader ]
  %indvars.iv.next23 = add nuw nsw i64 %indvars.iv22, 1
  %48 = sext i32 %.val to i64
  %49 = icmp slt i64 %indvars.iv.next23, %48
  br i1 %49, label %.preheader, label %._crit_edge, !llvm.loop !91

._crit_edge:                                      ; preds = %.critedge, %Wln_NtkCleanRefs.exit
  ret void
}